#include <math.h>
#include <stdio.h>
#include <stdlib.h>
#include <string.h>

int main()
{
	int n, i, j, k, l;
	scanf("%d", &n);
	if(n==1)
	{
		printf("End");
		return 0;
	}
	do
	{
		if(n%2!=0)
		{
			k=n*3+1;
			printf("%d*3+1=%d\n", n, k);
			n=k;
		}
		if(n%2==0)
		{
			j=n/2;
			printf("%d/2=%d\n", n, j);
			n=j;
		}
	}while(n>1);
	printf("End");
	return 0;
}

