; ModuleID = '34/96.c'
source_filename = "34/96.c"
target datalayout = "e-m:e-p270:32:32-p271:32:32-p272:64:64-i64:64-f80:128-n8:16:32:64-S128"
target triple = "x86_64-pc-linux-gnu"

@.str = private unnamed_addr constant [3 x i8] c"%d\00", align 1
@.str.1 = private unnamed_addr constant [4 x i8] c"End\00", align 1
@.str.2 = private unnamed_addr constant [11 x i8] c"%d*3+1=%d\0A\00", align 1
@.str.3 = private unnamed_addr constant [9 x i8] c"%d/2=%d\0A\00", align 1

; Function Attrs: noinline nounwind uwtable
define dso_local i32 @main() #0 {
  %1 = alloca i32, align 4
  %2 = alloca i32, align 4
  %3 = alloca i32, align 4
  %4 = alloca i32, align 4
  %5 = alloca i32, align 4
  %6 = alloca i32, align 4
  store i32 0, i32* %1, align 4
  %7 = call i32 (i8*, ...) @__isoc99_scanf(i8* getelementptr inbounds ([3 x i8], [3 x i8]* @.str, i64 0, i64 0), i32* %2)
  %8 = load i32, i32* %2, align 4
  %9 = icmp eq i32 %8, 1
  br i1 %9, label %10, label %12

10:                                               ; preds = %0
  %11 = call i32 (i8*, ...) @printf(i8* getelementptr inbounds ([4 x i8], [4 x i8]* @.str.1, i64 0, i64 0))
  store i32 0, i32* %1, align 4
  br label %42

12:                                               ; preds = %0
  br label %13

13:                                               ; preds = %37, %12
  %14 = load i32, i32* %2, align 4
  %15 = srem i32 %14, 2
  %16 = icmp ne i32 %15, 0
  br i1 %16, label %17, label %25

17:                                               ; preds = %13
  %18 = load i32, i32* %2, align 4
  %19 = mul nsw i32 %18, 3
  %20 = add nsw i32 %19, 1
  store i32 %20, i32* %5, align 4
  %21 = load i32, i32* %2, align 4
  %22 = load i32, i32* %5, align 4
  %23 = call i32 (i8*, ...) @printf(i8* getelementptr inbounds ([11 x i8], [11 x i8]* @.str.2, i64 0, i64 0), i32 %21, i32 %22)
  %24 = load i32, i32* %5, align 4
  store i32 %24, i32* %2, align 4
  br label %25

25:                                               ; preds = %17, %13
  %26 = load i32, i32* %2, align 4
  %27 = srem i32 %26, 2
  %28 = icmp eq i32 %27, 0
  br i1 %28, label %29, label %36

29:                                               ; preds = %25
  %30 = load i32, i32* %2, align 4
  %31 = sdiv i32 %30, 2
  store i32 %31, i32* %4, align 4
  %32 = load i32, i32* %2, align 4
  %33 = load i32, i32* %4, align 4
  %34 = call i32 (i8*, ...) @printf(i8* getelementptr inbounds ([9 x i8], [9 x i8]* @.str.3, i64 0, i64 0), i32 %32, i32 %33)
  %35 = load i32, i32* %4, align 4
  store i32 %35, i32* %2, align 4
  br label %36

36:                                               ; preds = %29, %25
  br label %37

37:                                               ; preds = %36
  %38 = load i32, i32* %2, align 4
  %39 = icmp sgt i32 %38, 1
  br i1 %39, label %13, label %40

40:                                               ; preds = %37
  %41 = call i32 (i8*, ...) @printf(i8* getelementptr inbounds ([4 x i8], [4 x i8]* @.str.1, i64 0, i64 0))
  store i32 0, i32* %1, align 4
  br label %42

42:                                               ; preds = %40, %10
  %43 = load i32, i32* %1, align 4
  ret i32 %43
}

declare dso_local i32 @__isoc99_scanf(i8*, ...) #1

declare dso_local i32 @printf(i8*, ...) #1


!llvm.module.flags = !{!0}
!llvm.ident = !{!1}

!0 = !{i32 1, !"wchar_size", i32 4}
!1 = !{!"clang version 10.0.0-4ubuntu1 "}
